libnumbertext-1.0.so.0:_Z8readfileRKNSt7__cxx1112basic_stringIcSt11char_traitsIcESaIcEEERNS0_IwS1_IwESaIwEEE
libnumbertext-1.0.so.0:_ZN10Numbertext10numbertextERNSt7__cxx1112basic_stringIcSt11char_traitsIcESaIcEEERKS5_
libnumbertext-1.0.so.0:_ZN10Numbertext10numbertextERNSt7__cxx1112basic_stringIwSt11char_traitsIwESaIwEEERKNS1_IcS2_IcESaIcEEE
libnumbertext-1.0.so.0:_ZN10Numbertext10numbertextEiRKNSt7__cxx1112basic_stringIcSt11char_traitsIcESaIcEEE
libnumbertext-1.0.so.0:_ZN10Numbertext14string2wstringERKNSt7__cxx1112basic_stringIcSt11char_traitsIcESaIcEEE
libnumbertext-1.0.so.0:_ZN10Numbertext14wstring2stringERKNSt7__cxx1112basic_stringIwSt11char_traitsIwESaIwEEE
libnumbertext-1.0.so.0:_ZN10Numbertext4loadENSt7__cxx1112basic_stringIcSt11char_traitsIcESaIcEEES5_
libnumbertext-1.0.so.0:_ZN10NumbertextC1Ev
libnumbertext-1.0.so.0:_ZN10NumbertextC2Ev
libnumbertext-1.0.so.0:_ZN5Soros3runERNSt7__cxx1112basic_stringIwSt11char_traitsIwESaIwEEE
libnumbertext-1.0.so.0:_ZN5Soros3runERNSt7__cxx1112basic_stringIwSt11char_traitsIwESaIwEEERibb
libnumbertext-1.0.so.0:_ZN5Soros7replaceERNSt7__cxx1112basic_stringIwSt11char_traitsIwESaIwEEERKS5_S8_
libnumbertext-1.0.so.0:_ZN5Soros9translateENSt7__cxx1112basic_stringIwSt11char_traitsIwESaIwEEES5_RKS5_S7_
libnumbertext-1.0.so.0:_ZN5SorosC1ENSt7__cxx1112basic_stringIwSt11char_traitsIwESaIwEEES5_
libnumbertext-1.0.so.0:_ZN5SorosC2ENSt7__cxx1112basic_stringIwSt11char_traitsIwESaIwEEES5_
libnumbertext-1.0.so.0:_ZNKSt23__codecvt_abstract_baseIwc11__mbstate_tE2inERS0_PKcS4_RS4_PwS6_RS6_
libnumbertext-1.0.so.0:_ZNKSt23__codecvt_abstract_baseIwc11__mbstate_tE3outERS0_PKwS4_RS4_PcS6_RS6_
libnumbertext-1.0.so.0:_ZNSt17_Function_handlerIFbcENSt8__detail11_AnyMatcherINSt7__cxx1112regex_traitsIcEELb0ELb0ELb0EEEE10_M_managerERSt9_Any_dataRKS8_St18_Manager_operation
libnumbertext-1.0.so.0:_ZNSt17_Function_handlerIFbcENSt8__detail11_AnyMatcherINSt7__cxx1112regex_traitsIcEELb0ELb0ELb0EEEE9_M_invokeERKSt9_Any_dataOc
libnumbertext-1.0.so.0:_ZNSt17_Function_handlerIFbcENSt8__detail11_AnyMatcherINSt7__cxx1112regex_traitsIcEELb0ELb0ELb1EEEE10_M_managerERSt9_Any_dataRKS8_St18_Manager_operation
libnumbertext-1.0.so.0:_ZNSt17_Function_handlerIFbcENSt8__detail11_AnyMatcherINSt7__cxx1112regex_traitsIcEELb0ELb0ELb1EEEE9_M_invokeERKSt9_Any_dataOc
libnumbertext-1.0.so.0:_ZNSt17_Function_handlerIFbcENSt8__detail11_AnyMatcherINSt7__cxx1112regex_traitsIcEELb0ELb1ELb0EEEE10_M_managerERSt9_Any_dataRKS8_St18_Manager_operation
libnumbertext-1.0.so.0:_ZNSt17_Function_handlerIFbcENSt8__detail11_AnyMatcherINSt7__cxx1112regex_traitsIcEELb0ELb1ELb0EEEE9_M_invokeERKSt9_Any_dataOc
libnumbertext-1.0.so.0:_ZNSt17_Function_handlerIFbcENSt8__detail11_AnyMatcherINSt7__cxx1112regex_traitsIcEELb0ELb1ELb1EEEE10_M_managerERSt9_Any_dataRKS8_St18_Manager_operation
libnumbertext-1.0.so.0:_ZNSt17_Function_handlerIFbcENSt8__detail11_AnyMatcherINSt7__cxx1112regex_traitsIcEELb0ELb1ELb1EEEE9_M_invokeERKSt9_Any_dataOc
libnumbertext-1.0.so.0:_ZNSt17_Function_handlerIFbcENSt8__detail11_AnyMatcherINSt7__cxx1112regex_traitsIcEELb1ELb0ELb0EEEE10_M_managerERSt9_Any_dataRKS8_St18_Manager_operation
libnumbertext-1.0.so.0:_ZNSt17_Function_handlerIFbcENSt8__detail11_AnyMatcherINSt7__cxx1112regex_traitsIcEELb1ELb0ELb0EEEE9_M_invokeERKSt9_Any_dataOc
libnumbertext-1.0.so.0:_ZNSt17_Function_handlerIFbcENSt8__detail11_AnyMatcherINSt7__cxx1112regex_traitsIcEELb1ELb0ELb1EEEE10_M_managerERSt9_Any_dataRKS8_St18_Manager_operation
libnumbertext-1.0.so.0:_ZNSt17_Function_handlerIFbcENSt8__detail11_AnyMatcherINSt7__cxx1112regex_traitsIcEELb1ELb0ELb1EEEE9_M_invokeERKSt9_Any_dataOc
libnumbertext-1.0.so.0:_ZNSt17_Function_handlerIFbcENSt8__detail11_AnyMatcherINSt7__cxx1112regex_traitsIcEELb1ELb1ELb0EEEE10_M_managerERSt9_Any_dataRKS8_St18_Manager_operation
libnumbertext-1.0.so.0:_ZNSt17_Function_handlerIFbcENSt8__detail11_AnyMatcherINSt7__cxx1112regex_traitsIcEELb1ELb1ELb0EEEE9_M_invokeERKSt9_Any_dataOc
libnumbertext-1.0.so.0:_ZNSt17_Function_handlerIFbcENSt8__detail11_AnyMatcherINSt7__cxx1112regex_traitsIcEELb1ELb1ELb1EEEE10_M_managerERSt9_Any_dataRKS8_St18_Manager_operation
libnumbertext-1.0.so.0:_ZNSt17_Function_handlerIFbcENSt8__detail11_AnyMatcherINSt7__cxx1112regex_traitsIcEELb1ELb1ELb1EEEE9_M_invokeERKSt9_Any_dataOc
libnumbertext-1.0.so.0:_ZNSt17_Function_handlerIFbcENSt8__detail12_CharMatcherINSt7__cxx1112regex_traitsIcEELb0ELb0EEEE10_M_managerERSt9_Any_dataRKS8_St18_Manager_operation
libnumbertext-1.0.so.0:_ZNSt17_Function_handlerIFbcENSt8__detail12_CharMatcherINSt7__cxx1112regex_traitsIcEELb0ELb0EEEE9_M_invokeERKSt9_Any_dataOc
libnumbertext-1.0.so.0:_ZNSt17_Function_handlerIFbcENSt8__detail12_CharMatcherINSt7__cxx1112regex_traitsIcEELb0ELb1EEEE10_M_managerERSt9_Any_dataRKS8_St18_Manager_operation
libnumbertext-1.0.so.0:_ZNSt17_Function_handlerIFbcENSt8__detail12_CharMatcherINSt7__cxx1112regex_traitsIcEELb0ELb1EEEE9_M_invokeERKSt9_Any_dataOc
libnumbertext-1.0.so.0:_ZNSt17_Function_handlerIFbcENSt8__detail12_CharMatcherINSt7__cxx1112regex_traitsIcEELb1ELb0EEEE10_M_managerERSt9_Any_dataRKS8_St18_Manager_operation
libnumbertext-1.0.so.0:_ZNSt17_Function_handlerIFbcENSt8__detail12_CharMatcherINSt7__cxx1112regex_traitsIcEELb1ELb0EEEE9_M_invokeERKSt9_Any_dataOc
libnumbertext-1.0.so.0:_ZNSt17_Function_handlerIFbcENSt8__detail12_CharMatcherINSt7__cxx1112regex_traitsIcEELb1ELb1EEEE10_M_managerERSt9_Any_dataRKS8_St18_Manager_operation
libnumbertext-1.0.so.0:_ZNSt17_Function_handlerIFbcENSt8__detail12_CharMatcherINSt7__cxx1112regex_traitsIcEELb1ELb1EEEE9_M_invokeERKSt9_Any_dataOc
libnumbertext-1.0.so.0:_ZNSt17_Function_handlerIFbcENSt8__detail15_BracketMatcherINSt7__cxx1112regex_traitsIcEELb0ELb0EEEE10_M_managerERSt9_Any_dataRKS8_St18_Manager_operation
libnumbertext-1.0.so.0:_ZNSt17_Function_handlerIFbcENSt8__detail15_BracketMatcherINSt7__cxx1112regex_traitsIcEELb0ELb0EEEE9_M_invokeERKSt9_Any_dataOc
libnumbertext-1.0.so.0:_ZNSt17_Function_handlerIFbcENSt8__detail15_BracketMatcherINSt7__cxx1112regex_traitsIcEELb0ELb1EEEE10_M_managerERSt9_Any_dataRKS8_St18_Manager_operation
libnumbertext-1.0.so.0:_ZNSt17_Function_handlerIFbcENSt8__detail15_BracketMatcherINSt7__cxx1112regex_traitsIcEELb0ELb1EEEE9_M_invokeERKSt9_Any_dataOc
libnumbertext-1.0.so.0:_ZNSt17_Function_handlerIFbcENSt8__detail15_BracketMatcherINSt7__cxx1112regex_traitsIcEELb1ELb0EEEE10_M_managerERSt9_Any_dataRKS8_St18_Manager_operation
libnumbertext-1.0.so.0:_ZNSt17_Function_handlerIFbcENSt8__detail15_BracketMatcherINSt7__cxx1112regex_traitsIcEELb1ELb0EEEE9_M_invokeERKSt9_Any_dataOc
libnumbertext-1.0.so.0:_ZNSt17_Function_handlerIFbcENSt8__detail15_BracketMatcherINSt7__cxx1112regex_traitsIcEELb1ELb1EEEE10_M_managerERSt9_Any_dataRKS8_St18_Manager_operation
libnumbertext-1.0.so.0:_ZNSt17_Function_handlerIFbcENSt8__detail15_BracketMatcherINSt7__cxx1112regex_traitsIcEELb1ELb1EEEE9_M_invokeERKSt9_Any_dataOc
libnumbertext-1.0.so.0:_ZNSt17_Function_handlerIFbwENSt8__detail11_AnyMatcherINSt7__cxx1112regex_traitsIwEELb0ELb0ELb0EEEE10_M_managerERSt9_Any_dataRKS8_St18_Manager_operation
libnumbertext-1.0.so.0:_ZNSt17_Function_handlerIFbwENSt8__detail11_AnyMatcherINSt7__cxx1112regex_traitsIwEELb0ELb0ELb0EEEE9_M_invokeERKSt9_Any_dataOw
libnumbertext-1.0.so.0:_ZNSt17_Function_handlerIFbwENSt8__detail11_AnyMatcherINSt7__cxx1112regex_traitsIwEELb0ELb0ELb1EEEE10_M_managerERSt9_Any_dataRKS8_St18_Manager_operation
libnumbertext-1.0.so.0:_ZNSt17_Function_handlerIFbwENSt8__detail11_AnyMatcherINSt7__cxx1112regex_traitsIwEELb0ELb0ELb1EEEE9_M_invokeERKSt9_Any_dataOw
libnumbertext-1.0.so.0:_ZNSt17_Function_handlerIFbwENSt8__detail11_AnyMatcherINSt7__cxx1112regex_traitsIwEELb0ELb1ELb0EEEE10_M_managerERSt9_Any_dataRKS8_St18_Manager_operation
libnumbertext-1.0.so.0:_ZNSt17_Function_handlerIFbwENSt8__detail11_AnyMatcherINSt7__cxx1112regex_traitsIwEELb0ELb1ELb0EEEE9_M_invokeERKSt9_Any_dataOw
libnumbertext-1.0.so.0:_ZNSt17_Function_handlerIFbwENSt8__detail11_AnyMatcherINSt7__cxx1112regex_traitsIwEELb0ELb1ELb1EEEE10_M_managerERSt9_Any_dataRKS8_St18_Manager_operation
libnumbertext-1.0.so.0:_ZNSt17_Function_handlerIFbwENSt8__detail11_AnyMatcherINSt7__cxx1112regex_traitsIwEELb0ELb1ELb1EEEE9_M_invokeERKSt9_Any_dataOw
libnumbertext-1.0.so.0:_ZNSt17_Function_handlerIFbwENSt8__detail11_AnyMatcherINSt7__cxx1112regex_traitsIwEELb1ELb0ELb0EEEE10_M_managerERSt9_Any_dataRKS8_St18_Manager_operation
libnumbertext-1.0.so.0:_ZNSt17_Function_handlerIFbwENSt8__detail11_AnyMatcherINSt7__cxx1112regex_traitsIwEELb1ELb0ELb0EEEE9_M_invokeERKSt9_Any_dataOw
libnumbertext-1.0.so.0:_ZNSt17_Function_handlerIFbwENSt8__detail11_AnyMatcherINSt7__cxx1112regex_traitsIwEELb1ELb0ELb1EEEE10_M_managerERSt9_Any_dataRKS8_St18_Manager_operation
libnumbertext-1.0.so.0:_ZNSt17_Function_handlerIFbwENSt8__detail11_AnyMatcherINSt7__cxx1112regex_traitsIwEELb1ELb0ELb1EEEE9_M_invokeERKSt9_Any_dataOw
libnumbertext-1.0.so.0:_ZNSt17_Function_handlerIFbwENSt8__detail11_AnyMatcherINSt7__cxx1112regex_traitsIwEELb1ELb1ELb0EEEE10_M_managerERSt9_Any_dataRKS8_St18_Manager_operation
libnumbertext-1.0.so.0:_ZNSt17_Function_handlerIFbwENSt8__detail11_AnyMatcherINSt7__cxx1112regex_traitsIwEELb1ELb1ELb0EEEE9_M_invokeERKSt9_Any_dataOw
libnumbertext-1.0.so.0:_ZNSt17_Function_handlerIFbwENSt8__detail11_AnyMatcherINSt7__cxx1112regex_traitsIwEELb1ELb1ELb1EEEE10_M_managerERSt9_Any_dataRKS8_St18_Manager_operation
libnumbertext-1.0.so.0:_ZNSt17_Function_handlerIFbwENSt8__detail11_AnyMatcherINSt7__cxx1112regex_traitsIwEELb1ELb1ELb1EEEE9_M_invokeERKSt9_Any_dataOw
libnumbertext-1.0.so.0:_ZNSt17_Function_handlerIFbwENSt8__detail12_CharMatcherINSt7__cxx1112regex_traitsIwEELb0ELb0EEEE10_M_managerERSt9_Any_dataRKS8_St18_Manager_operation
libnumbertext-1.0.so.0:_ZNSt17_Function_handlerIFbwENSt8__detail12_CharMatcherINSt7__cxx1112regex_traitsIwEELb0ELb0EEEE9_M_invokeERKSt9_Any_dataOw
libnumbertext-1.0.so.0:_ZNSt17_Function_handlerIFbwENSt8__detail12_CharMatcherINSt7__cxx1112regex_traitsIwEELb0ELb1EEEE10_M_managerERSt9_Any_dataRKS8_St18_Manager_operation
libnumbertext-1.0.so.0:_ZNSt17_Function_handlerIFbwENSt8__detail12_CharMatcherINSt7__cxx1112regex_traitsIwEELb0ELb1EEEE9_M_invokeERKSt9_Any_dataOw
libnumbertext-1.0.so.0:_ZNSt17_Function_handlerIFbwENSt8__detail12_CharMatcherINSt7__cxx1112regex_traitsIwEELb1ELb0EEEE10_M_managerERSt9_Any_dataRKS8_St18_Manager_operation
libnumbertext-1.0.so.0:_ZNSt17_Function_handlerIFbwENSt8__detail12_CharMatcherINSt7__cxx1112regex_traitsIwEELb1ELb0EEEE9_M_invokeERKSt9_Any_dataOw
libnumbertext-1.0.so.0:_ZNSt17_Function_handlerIFbwENSt8__detail12_CharMatcherINSt7__cxx1112regex_traitsIwEELb1ELb1EEEE10_M_managerERSt9_Any_dataRKS8_St18_Manager_operation
libnumbertext-1.0.so.0:_ZNSt17_Function_handlerIFbwENSt8__detail12_CharMatcherINSt7__cxx1112regex_traitsIwEELb1ELb1EEEE9_M_invokeERKSt9_Any_dataOw
libnumbertext-1.0.so.0:_ZNSt17_Function_handlerIFbwENSt8__detail15_BracketMatcherINSt7__cxx1112regex_traitsIwEELb0ELb0EEEE10_M_managerERSt9_Any_dataRKS8_St18_Manager_operation
libnumbertext-1.0.so.0:_ZNSt17_Function_handlerIFbwENSt8__detail15_BracketMatcherINSt7__cxx1112regex_traitsIwEELb0ELb0EEEE9_M_invokeERKSt9_Any_dataOw
libnumbertext-1.0.so.0:_ZNSt17_Function_handlerIFbwENSt8__detail15_BracketMatcherINSt7__cxx1112regex_traitsIwEELb0ELb1EEEE10_M_managerERSt9_Any_dataRKS8_St18_Manager_operation
libnumbertext-1.0.so.0:_ZNSt17_Function_handlerIFbwENSt8__detail15_BracketMatcherINSt7__cxx1112regex_traitsIwEELb0ELb1EEEE9_M_invokeERKSt9_Any_dataOw
libnumbertext-1.0.so.0:_ZNSt17_Function_handlerIFbwENSt8__detail15_BracketMatcherINSt7__cxx1112regex_traitsIwEELb1ELb0EEEE10_M_managerERSt9_Any_dataRKS8_St18_Manager_operation
libnumbertext-1.0.so.0:_ZNSt17_Function_handlerIFbwENSt8__detail15_BracketMatcherINSt7__cxx1112regex_traitsIwEELb1ELb0EEEE9_M_invokeERKSt9_Any_dataOw
libnumbertext-1.0.so.0:_ZNSt17_Function_handlerIFbwENSt8__detail15_BracketMatcherINSt7__cxx1112regex_traitsIwEELb1ELb1EEEE10_M_managerERSt9_Any_dataRKS8_St18_Manager_operation
libnumbertext-1.0.so.0:_ZNSt17_Function_handlerIFbwENSt8__detail15_BracketMatcherINSt7__cxx1112regex_traitsIwEELb1ELb1EEEE9_M_invokeERKSt9_Any_dataOw
libnumbertext-1.0.so.0:_ZNSt8__detail8_ScannerIcE18_M_eat_escape_ecmaEv
libnumbertext-1.0.so.0:_ZNSt8__detail8_ScannerIcE19_M_eat_escape_posixEv
libnumbertext-1.0.so.0:_ZNSt8__detail8_ScannerIwE18_M_eat_escape_ecmaEv
libnumbertext-1.0.so.0:_ZNSt8__detail8_ScannerIwE19_M_eat_escape_posixEv
